	.section	__TEXT,__text,regular,pure_instructions
	.build_version macos, 10, 14	sdk_version 10, 14
	.file	1 "/Users/cabohn/personal-version-control/phsi_supplements/labs/03.integerlab/starter-code" "./alu.h"
	.file	2 "/Users/cabohn/personal-version-control/phsi_supplements/labs/03.integerlab/starter-code" "/Library/Developer/CommandLineTools/SDKs/MacOSX10.14.sdk/usr/include/_types/_uint16_t.h"
	.globl	_add                    ## -- Begin function add
	.p2align	4, 0x90
_add:                                   ## @add
Lfunc_begin0:
	.file	3 "/Users/cabohn/personal-version-control/phsi_supplements/labs/03.integerlab/starter-code" "alu.c"
	.loc	3 21 0                  ## alu.c:21:0
	.cfi_startproc
## %bb.0:
	pushq	%rbp
	.cfi_def_cfa_offset 16
	.cfi_offset %rbp, -16
	movq	%rsp, %rbp
	.cfi_def_cfa_register %rbp
	##DEBUG_VALUE: add:augend <- $edi
	##DEBUG_VALUE: add:augend <- $edi
	##DEBUG_VALUE: add:addend <- $esi
	##DEBUG_VALUE: add:addend <- $esi
Ltmp0:
	.loc	3 23 30 prologue_end    ## alu.c:23:30
	addl	%esi, %edi
Ltmp1:
	##DEBUG_VALUE: add:addition <- [DW_OP_LLVM_fragment 16 8] 0
	.loc	3 25 5                  ## alu.c:25:5
	movzwl	%di, %eax
Ltmp2:
	##DEBUG_VALUE: add:addition <- [DW_OP_LLVM_fragment 0 16] $eax
	popq	%rbp
	retq
Ltmp3:
Lfunc_end0:
	.cfi_endproc
                                        ## -- End function
	.globl	_subtract               ## -- Begin function subtract
	.p2align	4, 0x90
_subtract:                              ## @subtract
Lfunc_begin1:
	.loc	3 31 0                  ## alu.c:31:0
	.cfi_startproc
## %bb.0:
	pushq	%rbp
	.cfi_def_cfa_offset 16
	.cfi_offset %rbp, -16
	movq	%rsp, %rbp
	.cfi_def_cfa_register %rbp
	##DEBUG_VALUE: subtract:menuend <- $edi
	##DEBUG_VALUE: subtract:menuend <- $edi
	##DEBUG_VALUE: subtract:subtrahend <- $esi
	##DEBUG_VALUE: subtract:subtrahend <- $esi
Ltmp4:
	##DEBUG_VALUE: subtract:augend <- $edi
	##DEBUG_VALUE: subtract:augend <- $edi
	.loc	3 33 34 prologue_end    ## alu.c:33:34
	negl	%esi
Ltmp5:
	.loc	3 34 12                 ## alu.c:34:12
	movzwl	%si, %esi
Ltmp6:
	##DEBUG_VALUE: subtract:addend <- $esi
	##DEBUG_VALUE: subtract:augend <- $edi
	##DEBUG_VALUE: subtract:menuend <- $edi
	popq	%rbp
	jmp	_add                    ## TAILCALL
Ltmp7:
Lfunc_end1:
	.cfi_endproc
                                        ## -- End function
	.globl	_multiply               ## -- Begin function multiply
	.p2align	4, 0x90
_multiply:                              ## @multiply
Lfunc_begin2:
	.loc	3 41 0                  ## alu.c:41:0
	.cfi_startproc
## %bb.0:
	pushq	%rbp
	.cfi_def_cfa_offset 16
	.cfi_offset %rbp, -16
	movq	%rsp, %rbp
	.cfi_def_cfa_register %rbp
	##DEBUG_VALUE: multiply:multiplicand <- $edi
	##DEBUG_VALUE: multiply:multiplier <- $esi
                                        ## kill: def $edi killed $edi def $rdi
Ltmp8:
	##DEBUG_VALUE: multiply:multiplication <- [DW_OP_LLVM_fragment 64 8] 0
	##DEBUG_VALUE: multiply:multiplier <- $esi
	##DEBUG_VALUE: multiply:multiplicand <- $edi
	.loc	3 43 43 prologue_end    ## alu.c:43:43
	imull	%esi, %edi
Ltmp9:
	.loc	3 46 5                  ## alu.c:46:5
	movzwl	%di, %eax
	shlq	$32, %rdi
	orq	%rdi, %rax
	xorl	%edx, %edx
	popq	%rbp
	retq
Ltmp10:
Lfunc_end2:
	.cfi_endproc
                                        ## -- End function
	.globl	_divide                 ## -- Begin function divide
	.p2align	4, 0x90
_divide:                                ## @divide
Lfunc_begin3:
	.loc	3 53 0                  ## alu.c:53:0
	.cfi_startproc
## %bb.0:
	pushq	%rbp
	.cfi_def_cfa_offset 16
	.cfi_offset %rbp, -16
	movq	%rsp, %rbp
	.cfi_def_cfa_register %rbp
	##DEBUG_VALUE: divide:dividend <- $edi
	##DEBUG_VALUE: divide:dividend <- $edi
	##DEBUG_VALUE: divide:divisor <- $esi
	##DEBUG_VALUE: divide:divisor <- $esi
Ltmp11:
	##DEBUG_VALUE: divide:divisor <- $si
	.loc	3 55 9 prologue_end     ## alu.c:55:9
	testw	%si, %si
Ltmp12:
	.loc	3 55 9 is_stmt 0        ## alu.c:55:9
	je	LBB3_1
## %bb.2:
	##DEBUG_VALUE: divide:divisor <- $si
	##DEBUG_VALUE: divide:dividend <- $edi
Ltmp13:
	##DEBUG_VALUE: divide:dividend <- $di
	.loc	3 57 39 is_stmt 1       ## alu.c:57:39
	xorl	%edx, %edx
	movl	%edi, %eax
	divw	%si
                                        ## kill: def $dx killed $dx def $rdx
	.loc	3 58 5                  ## alu.c:58:5
	shll	$16, %edx
	movzwl	%ax, %eax
	jmp	LBB3_3
Ltmp14:
LBB3_1:
	##DEBUG_VALUE: divide:divisor <- $si
	##DEBUG_VALUE: divide:dividend <- $edi
	.loc	3 0 5 is_stmt 0         ## alu.c:0:5
	xorl	%eax, %eax
	xorl	%edx, %edx
LBB3_3:
	##DEBUG_VALUE: divide:divisor <- $si
Ltmp15:
	##DEBUG_VALUE: divide:division <- [DW_OP_LLVM_fragment 32 8] 0
	.loc	3 60 5 is_stmt 1        ## alu.c:60:5
	orq	%rdx, %rax
	popq	%rbp
	retq
Ltmp16:
Lfunc_end3:
	.cfi_endproc
                                        ## -- End function
	.comm	_is_signed,1,0          ## @is_signed
	.file	4 "/Users/cabohn/personal-version-control/phsi_supplements/labs/03.integerlab/starter-code" "/Library/Developer/CommandLineTools/SDKs/MacOSX10.14.sdk/usr/include/_types/_uint32_t.h"